target datalayout = "e-m:e-p270:32:32-p271:32:32-p272:64:64-i64:64-i128:128-f80:128-n8:16:32:64-S128"
target triple = "x86_64-pc-linux-gnu"

%"class.icu_77::UObject" = type { ptr }
%"class.icu_77::UnicodeString" = type { %"class.icu_77::Replaceable", %"union.icu_77::UnicodeString::StackBufferOrFields" }
%"class.icu_77::Replaceable" = type { %"class.icu_77::UObject" }
%"union.icu_77::UnicodeString::StackBufferOrFields" = type { %struct.anon.0, [32 x i8] }
%struct.anon.0 = type { i16, i32, i32, ptr }
%struct.UText = type { i32, i32, i32, i32, i64, i32, i32, i64, i32, i32, ptr, ptr, ptr, ptr, ptr, ptr, ptr, ptr, i64, i32, i32, i64, i32, i32 }
%struct.anon = type { i16, [27 x i16] }

@_ZTVN6icu_777UObjectE = available_externally unnamed_addr constant { [5 x ptr] } { [5 x ptr] [ptr null, ptr @_ZTIN6icu_777UObjectE, ptr @_ZN6icu_777UObjectD1Ev, ptr @_ZN6icu_777UObjectD0Ev, ptr @_ZNK6icu_777UObject17getDynamicClassIDEv] }, align 8

; Function Attrs: inlinehint mustprogress nounwind uwtable
define linkonce_odr void @_ZN6icu_777UObjectC2Ev(ptr noundef nonnull align 8 dereferenceable(8) %0) unnamed_addr #2 comdat align 2 {
  %2 = alloca ptr, align 8
  store ptr %0, ptr %2, align 8, !tbaa !52
  %3 = load ptr, ptr %2, align 8
  store ptr getelementptr inbounds inrange(-16, 24) ({ [5 x ptr] }, ptr @_ZTVN6icu_777UObjectE, i32 0, i32 0, i32 2), ptr %3, align 8, !tbaa !27
  ret void
}

; Function Attrs: inlinehint mustprogress nounwind uwtable
define linkonce_odr void @_ZN6icu_7711ReplaceableC2Ev(ptr noundef nonnull align 8 dereferenceable(8) %0) unnamed_addr #2 comdat align 2 {
  %2 = alloca ptr, align 8
  store ptr %0, ptr %2, align 8, !tbaa !200
  %3 = load ptr, ptr %2, align 8
  call void @_ZN6icu_777UObjectC2Ev(ptr noundef nonnull align 8 dereferenceable(8) %3) #11
  store ptr getelementptr inbounds inrange(-16, 88) ({ [13 x ptr] }, ptr @_ZTVN6icu_7711ReplaceableE, i32 0, i32 0, i32 2), ptr %3, align 8, !tbaa !27
  ret void
}

; Function Attrs: inlinehint mustprogress uwtable
define linkonce_odr void @_ZN6icu_7713UnicodeStringC2Ev(ptr noundef nonnull align 8 dereferenceable(64) %0) unnamed_addr #3 comdat align 2 {
  %2 = alloca ptr, align 8
  store ptr %0, ptr %2, align 8, !tbaa !100
  %3 = load ptr, ptr %2, align 8
  call void @_ZN6icu_7711ReplaceableC2Ev(ptr noundef nonnull align 8 dereferenceable(8) %3)
  store ptr getelementptr inbounds inrange(-16, 88) ({ [13 x ptr] }, ptr @_ZTVN6icu_7713UnicodeStringE, i32 0, i32 0, i32 2), ptr %3, align 8, !tbaa !27
  %4 = getelementptr inbounds nuw %"class.icu_77::UnicodeString", ptr %3, i32 0, i32 1
  %5 = getelementptr inbounds nuw %struct.anon, ptr %4, i32 0, i32 0
  store i16 2, ptr %5, align 8, !tbaa !126
  ret void
}

; Function Attrs: mustprogress uwtable
define void @_ZN6icu_7712RegexMatcher12replaceFirstERKNS_13UnicodeStringER10UErrorCode(ptr dead_on_unwind noalias writable sret(%"class.icu_77::UnicodeString") align 8 %0, ptr noundef nonnull align 8 dereferenceable(336) %1, ptr noundef nonnull align 8 dereferenceable(64) %2, ptr noundef nonnull align 4 dereferenceable(4) %3) unnamed_addr #1 align 2 personality ptr @__gxx_personality_v0 {
  %5 = alloca ptr, align 8
  %6 = alloca ptr, align 8
  %7 = alloca ptr, align 8
  %8 = alloca ptr, align 8
  %9 = alloca %struct.UText, align 8
  %10 = alloca %struct.UText, align 8
  %11 = alloca i1, align 1
  %12 = alloca ptr, align 8
  %13 = alloca i32, align 4
  store ptr %0, ptr %5, align 8
  store ptr %1, ptr %6, align 8, !tbaa !23
  store ptr %2, ptr %7, align 8, !tbaa !100
  store ptr %3, ptr %8, align 8, !tbaa !22
  %14 = load ptr, ptr %6, align 8
  call void @llvm.lifetime.start.p0(i64 144, ptr %9) #11
  call void @llvm.memset.p0.i64(ptr align 8 %9, i8 0, i64 144, i1 false)
  %15 = getelementptr inbounds %struct.UText, ptr %9, i32 0, i32 0
  store i32 878368812, ptr %15, align 8
  %16 = getelementptr inbounds %struct.UText, ptr %9, i32 0, i32 3
  store i32 144, ptr %16, align 4
  call void @llvm.lifetime.start.p0(i64 144, ptr %10) #11
  call void @llvm.memset.p0.i64(ptr align 8 %10, i8 0, i64 144, i1 false)
  %17 = getelementptr inbounds %struct.UText, ptr %10, i32 0, i32 0
  store i32 878368812, ptr %17, align 8
  %18 = getelementptr inbounds %struct.UText, ptr %10, i32 0, i32 3
  store i32 144, ptr %18, align 4
  store i1 false, ptr %11, align 1
  call void @_ZN6icu_7713UnicodeStringC2Ev(ptr noundef nonnull align 8 dereferenceable(64) %0)
  %19 = load ptr, ptr %7, align 8, !tbaa !100
  %20 = load ptr, ptr %8, align 8, !tbaa !22
  %21 = invoke ptr @utext_openConstUnicodeString_77(ptr noundef %9, ptr noundef %19, ptr noundef %20)
          to label %22 unwind label %34

22:                                               ; preds = %4
  %23 = load ptr, ptr %8, align 8, !tbaa !22
  %24 = invoke ptr @utext_openUnicodeString_77(ptr noundef %10, ptr noundef %0, ptr noundef %23)
          to label %25 unwind label %34

25:                                               ; preds = %22
  %26 = load ptr, ptr %8, align 8, !tbaa !22
  %27 = invoke noundef ptr @_ZN6icu_7712RegexMatcher12replaceFirstEP5UTextS2_R10UErrorCode(ptr noundef nonnull align 8 dereferenceable(336) %14, ptr noundef %9, ptr noundef %10, ptr noundef nonnull align 4 dereferenceable(4) %26)
          to label %28 unwind label %34

28:                                               ; preds = %25
  %29 = invoke ptr @utext_close_77(ptr noundef %10)
          to label %30 unwind label %34

30:                                               ; preds = %28
  %31 = invoke ptr @utext_close_77(ptr noundef %9)
          to label %32 unwind label %34

32:                                               ; preds = %30
  store i1 true, ptr %11, align 1
  %33 = load i1, ptr %11, align 1
  br i1 %33, label %39, label %38

34:                                               ; preds = %30, %28, %25, %22, %4
  %35 = landingpad { ptr, i32 }
          cleanup
  %36 = extractvalue { ptr, i32 } %35, 0
  store ptr %36, ptr %12, align 8
  %37 = extractvalue { ptr, i32 } %35, 1
  store i32 %37, ptr %13, align 4
  call void @_ZN6icu_7713UnicodeStringD1Ev(ptr noundef nonnull align 8 dereferenceable(64) %0) #11
  call void @llvm.lifetime.end.p0(i64 144, ptr %10) #11
  call void @llvm.lifetime.end.p0(i64 144, ptr %9) #11
  br label %40

38:                                               ; preds = %32
  call void @_ZN6icu_7713UnicodeStringD1Ev(ptr noundef nonnull align 8 dereferenceable(64) %0) #11
  br label %39

39:                                               ; preds = %38, %32
  call void @llvm.lifetime.end.p0(i64 144, ptr %10) #11
  call void @llvm.lifetime.end.p0(i64 144, ptr %9) #11
  ret void

40:                                               ; preds = %34
  %41 = load ptr, ptr %12, align 8
  %42 = load i32, ptr %13, align 4
  %43 = insertvalue { ptr, i32 } poison, ptr %41, 0
  %44 = insertvalue { ptr, i32 } %43, i32 %42, 1
  resume { ptr, i32 } %44
}