; Function Attrs: mustprogress uwtable
define void @_ZN6icu_7712RegexMatcher12replaceFirstERKNS_13UnicodeStringER10UErrorCode(ptr dead_on_unwind noalias writable sret(%"class.icu_77::UnicodeString") align 8 initializes((0, 10)) %0, ptr noundef nonnull align 8 dereferenceable(336) %1, ptr noundef nonnull align 8 dereferenceable(64) %2, ptr noundef nonnull align 4 dereferenceable(4) %3) unnamed_addr #1 align 2 personality ptr @__gxx_personality_v0 {
  %5 = alloca %struct.UText, align 8
  %6 = alloca %struct.UText, align 8
  call void @llvm.lifetime.start.p0(i64 144, ptr nonnull %5) #21
  call void @llvm.memset.p0.i64(ptr noundef nonnull align 8 dereferenceable(144) %5, i8 0, i64 144, i1 false)
  store i32 878368812, ptr %5, align 8
  %7 = getelementptr inbounds nuw i8, ptr %5, i64 12
  store i32 144, ptr %7, align 4
  call void @llvm.lifetime.start.p0(i64 144, ptr nonnull %6) #21
  call void @llvm.memset.p0.i64(ptr noundef nonnull align 8 dereferenceable(144) %6, i8 0, i64 144, i1 false)
  store i32 878368812, ptr %6, align 8
  %8 = getelementptr inbounds nuw i8, ptr %6, i64 12
  store i32 144, ptr %8, align 4
  store ptr getelementptr inbounds nuw inrange(-16, 88) (i8, ptr @_ZTVN6icu_7713UnicodeStringE, i64 16), ptr %0, align 8, !tbaa !15
  %9 = getelementptr inbounds nuw i8, ptr %0, i64 8
  store i16 2, ptr %9, align 8, !tbaa !100
  %10 = invoke ptr @utext_openConstUnicodeString_77(ptr noundef nonnull %5, ptr noundef nonnull %2, ptr noundef nonnull %3)
          to label %11 unwind label %19

11:                                               ; preds = %4
  %12 = invoke ptr @utext_openUnicodeString_77(ptr noundef nonnull %6, ptr noundef nonnull %0, ptr noundef nonnull %3)
          to label %13 unwind label %19

13:                                               ; preds = %11
  %14 = invoke noundef ptr @_ZN6icu_7712RegexMatcher12replaceFirstEP5UTextS2_R10UErrorCode(ptr noundef nonnull align 8 dereferenceable(336) %1, ptr noundef nonnull %5, ptr noundef nonnull %6, ptr noundef nonnull align 4 dereferenceable(4) %3)
          to label %15 unwind label %19

15:                                               ; preds = %13
  %16 = invoke ptr @utext_close_77(ptr noundef nonnull %6)
          to label %17 unwind label %19

17:                                               ; preds = %15
  %18 = invoke ptr @utext_close_77(ptr noundef nonnull %5)
          to label %21 unwind label %19

19:                                               ; preds = %17, %15, %13, %11, %4
  %20 = landingpad { ptr, i32 }
          cleanup
  call void @_ZN6icu_7713UnicodeStringD1Ev(ptr noundef nonnull align 8 dereferenceable(64) %0) #21
  call void @llvm.lifetime.end.p0(i64 144, ptr nonnull %6) #21
  call void @llvm.lifetime.end.p0(i64 144, ptr nonnull %5) #21
  resume { ptr, i32 } %20

21:                                               ; preds = %17
  call void @llvm.lifetime.end.p0(i64 144, ptr nonnull %6) #21
  call void @llvm.lifetime.end.p0(i64 144, ptr nonnull %5) #21
  ret void
}